target datalayout = "e-m:e-p270:32:32-p271:32:32-p272:64:64-i64:64-i128:128-f80:128-n8:16:32:64-S128"
target triple = "x86_64-pc-linux-gnu"

%struct._value_string_ext = type { ptr, i32, i32, ptr, ptr }

@hf_gtpv2_spare_bits = internal global i32 0, align 4
@.str.14 = private unnamed_addr constant [8 x i8] c"Unknown\00", align 1
@hf_gtpv2_ebi = internal global i32 0, align 4
@hf_gtpv2_ppi_value = internal global i32 0, align 4
@dscp_vals_ext = external global %struct._value_string_ext, align 8
@hf_gtpv2_ppi_flag = internal global i32 0, align 4
@.str.1849 = private unnamed_addr constant [17 x i8] c" (PPI Value: %s)\00", align 1

; Function Attrs: null_pointer_is_valid sspstrong uwtable
define internal void @dissect_gtpv2_paging_and_service_inf(ptr noundef %0, ptr noundef %1, ptr noundef %2, ptr noundef %3, i16 noundef zeroext %4, i8 noundef zeroext %5, i8 noundef zeroext %6, ptr noundef %7) #1 {
  %9 = alloca ptr, align 8
  %10 = alloca ptr, align 8
  %11 = alloca ptr, align 8
  %12 = alloca ptr, align 8
  %13 = alloca i16, align 2
  %14 = alloca i8, align 1
  %15 = alloca i8, align 1
  %16 = alloca ptr, align 8
  %17 = alloca i32, align 4
  %18 = alloca i8, align 1
  store ptr %0, ptr %9, align 8
  store ptr %1, ptr %10, align 8
  store ptr %2, ptr %11, align 8
  store ptr %3, ptr %12, align 8
  store i16 %4, ptr %13, align 2
  store i8 %5, ptr %14, align 1
  store i8 %6, ptr %15, align 1
  store ptr %7, ptr %16, align 8
  call void @llvm.lifetime.start.p0(i64 4, ptr %17) #11
  store i32 0, ptr %17, align 4
  call void @llvm.lifetime.start.p0(i64 1, ptr %18) #11
  %19 = load ptr, ptr %11, align 8
  %20 = load i32, ptr @hf_gtpv2_spare_bits, align 4
  %21 = load ptr, ptr %9, align 8
  %22 = load i32, ptr %17, align 4
  %23 = call ptr @proto_tree_add_bits_item(ptr noundef %19, i32 noundef %20, ptr noundef %21, i32 noundef %22, i32 noundef 4, i32 noundef 0)
  %24 = load ptr, ptr %11, align 8
  %25 = load i32, ptr @hf_gtpv2_ebi, align 4
  %26 = load ptr, ptr %9, align 8
  %27 = load i32, ptr %17, align 4
  %28 = call ptr @proto_tree_add_item(ptr noundef %24, i32 noundef %25, ptr noundef %26, i32 noundef %27, i32 noundef 1, i32 noundef 0)
  %29 = load i32, ptr %17, align 4
  %30 = add i32 %29, 1
  store i32 %30, ptr %17, align 4
  %31 = load ptr, ptr %11, align 8
  %32 = load i32, ptr @hf_gtpv2_spare_bits, align 4
  %33 = load ptr, ptr %9, align 8
  %34 = load i32, ptr %17, align 4
  %35 = shl i32 %34, 3
  %36 = call ptr @proto_tree_add_bits_item(ptr noundef %31, i32 noundef %32, ptr noundef %33, i32 noundef %35, i32 noundef 7, i32 noundef 0)
  %37 = load ptr, ptr %9, align 8
  %38 = load i32, ptr %17, align 4
  %39 = call zeroext i8 @tvb_get_uint8(ptr noundef %37, i32 noundef %38)
  store i8 %39, ptr %18, align 1
  %40 = load ptr, ptr %11, align 8
  %41 = load i32, ptr @hf_gtpv2_ppi_flag, align 4
  %42 = load ptr, ptr %9, align 8
  %43 = load i32, ptr %17, align 4
  %44 = call ptr @proto_tree_add_item(ptr noundef %40, i32 noundef %41, ptr noundef %42, i32 noundef %43, i32 noundef 1, i32 noundef 0)
  %45 = load i32, ptr %17, align 4
  %46 = add i32 %45, 1
  store i32 %46, ptr %17, align 4
  %47 = load i8, ptr %18, align 1
  %48 = zext i8 %47 to i32
  %49 = and i32 %48, 1
  %50 = icmp ne i32 %49, 0
  br i1 %50, label %51, label %69

51:                                               ; preds = %8
  %52 = load ptr, ptr %11, align 8
  %53 = load i32, ptr @hf_gtpv2_spare_bits, align 4
  %54 = load ptr, ptr %9, align 8
  %55 = load i32, ptr %17, align 4
  %56 = shl i32 %55, 3
  %57 = call ptr @proto_tree_add_bits_item(ptr noundef %52, i32 noundef %53, ptr noundef %54, i32 noundef %56, i32 noundef 2, i32 noundef 0)
  %58 = load ptr, ptr %11, align 8
  %59 = load ptr, ptr %9, align 8
  %60 = load i32, ptr %17, align 4
  %61 = call zeroext i8 @tvb_get_uint8(ptr noundef %59, i32 noundef %60)
  %62 = zext i8 %61 to i32
  %63 = call ptr @val_to_str_ext_const(i32 noundef %62, ptr noundef @dscp_vals_ext, ptr noundef @.str.14)
  call void (ptr, ptr, ...) @proto_item_append_text(ptr noundef %58, ptr noundef @.str.1849, ptr noundef %63)
  %64 = load ptr, ptr %11, align 8
  %65 = load i32, ptr @hf_gtpv2_ppi_value, align 4
  %66 = load ptr, ptr %9, align 8
  %67 = load i32, ptr %17, align 4
  %68 = call ptr @proto_tree_add_item(ptr noundef %64, i32 noundef %65, ptr noundef %66, i32 noundef %67, i32 noundef 1, i32 noundef 0)
  br label %69

69:                                               ; preds = %51, %8
  call void @llvm.lifetime.end.p0(i64 1, ptr %18) #11
  call void @llvm.lifetime.end.p0(i64 4, ptr %17) #11
  ret void
}