; Function Attrs: null_pointer_is_valid sspstrong uwtable
define internal void @dissect_gtpv2_paging_and_service_inf(ptr noundef %0, ptr readnone captures(none) %1, ptr noundef %2, ptr readnone captures(none) %3, i16 zeroext %4, i8 zeroext %5, i8 zeroext %6, ptr readnone captures(none) %7) #1 {
  %9 = load i32, ptr @hf_gtpv2_spare_bits, align 4
  %10 = tail call ptr @proto_tree_add_bits_item(ptr noundef %2, i32 noundef %9, ptr noundef %0, i32 noundef 0, i32 noundef 4, i32 noundef 0)
  %11 = load i32, ptr @hf_gtpv2_ebi, align 4
  %12 = tail call ptr @proto_tree_add_item(ptr noundef %2, i32 noundef %11, ptr noundef %0, i32 noundef 0, i32 noundef 1, i32 noundef 0)
  %13 = load i32, ptr @hf_gtpv2_spare_bits, align 4
  %14 = tail call ptr @proto_tree_add_bits_item(ptr noundef %2, i32 noundef %13, ptr noundef %0, i32 noundef 8, i32 noundef 7, i32 noundef 0)
  %15 = tail call zeroext i8 @tvb_get_uint8(ptr noundef %0, i32 noundef 1)
  %16 = load i32, ptr @hf_gtpv2_ppi_flag, align 4
  %17 = tail call ptr @proto_tree_add_item(ptr noundef %2, i32 noundef %16, ptr noundef %0, i32 noundef 1, i32 noundef 1, i32 noundef 0)
  %18 = and i8 %15, 1
  %.not = icmp eq i8 %18, 0
  br i1 %.not, label %27, label %19

19:                                               ; preds = %8
  %20 = load i32, ptr @hf_gtpv2_spare_bits, align 4
  %21 = tail call ptr @proto_tree_add_bits_item(ptr noundef %2, i32 noundef %20, ptr noundef %0, i32 noundef 16, i32 noundef 2, i32 noundef 0)
  %22 = tail call zeroext i8 @tvb_get_uint8(ptr noundef %0, i32 noundef 2)
  %23 = zext i8 %22 to i32
  %24 = tail call ptr @val_to_str_ext_const(i32 noundef %23, ptr noundef nonnull @dscp_vals_ext, ptr noundef nonnull @.str.14)
  tail call void (ptr, ptr, ...) @proto_item_append_text(ptr noundef %2, ptr noundef nonnull @.str.1849, ptr noundef %24)
  %25 = load i32, ptr @hf_gtpv2_ppi_value, align 4
  %26 = tail call ptr @proto_tree_add_item(ptr noundef %2, i32 noundef %25, ptr noundef %0, i32 noundef 2, i32 noundef 1, i32 noundef 0)
  br label %27

27:                                               ; preds = %19, %8
  ret void
}